(dp0
Vsh.exe
p1
ccopy_reg
_reconstructor
p2
(c__main__
Application
p3
c__builtin__
object
p4
Ntp5
Rp6
(dp7
S'process'
p8
g1
sS'is_productive'
p9
NsS'seconds_active'
p10
I0
sbsS'www.reddit.com'
p11
g2
(g3
g4
Ntp12
Rp13
(dp14
g8
g11
sg9
I00
sg10
I0
sbsS'stackoverflow.com'
p15
g2
(g3
g4
Ntp16
Rp17
(dp18
g8
g15
sg9
I01
sg10
I0
sbsS'firefox.exe'
p19
g2
(g3
g4
Ntp20
Rp21
(dp22
g8
g19
sg9
I01
sg10
I0
sbsVWinRAR.exe
p23
g2
(g3
g4
Ntp24
Rp25
(dp26
g8
g23
sg9
I01
sg10
I0
sbsS'mail.google.com'
p27
g2
(g3
g4
Ntp28
Rp29
(dp30
g8
g27
sg9
I01
sg10
I0
sbsVjade.exe
p31
g2
(g3
g4
Ntp32
Rp33
(dp34
g8
g31
sg9
I01
sg10
I0
sbsS'play.google.com'
p35
g2
(g3
g4
Ntp36
Rp37
(dp38
g8
g35
sg9
I00
sg10
I0
sbsVexplorer.exe
p39
g2
(g3
g4
Ntp40
Rp41
(dp42
g8
g39
sg9
I01
sg10
I0
sbsS'arstechnica.com'
p43
g2
(g3
g4
Ntp44
Rp45
(dp46
g8
g43
sg9
Nsg10
I0
sbsS'kiwiirc.com'
p47
g2
(g3
g4
Ntp48
Rp49
(dp50
g8
g47
sg9
I00
sg10
I0
sbsS'pricespy.co.nz'
p51
g2
(g3
g4
Ntp52
Rp53
(dp54
g8
g51
sg9
I00
sg10
I0
sbsS'phys.org'
p55
g2
(g3
g4
Ntp56
Rp57
(dp58
g8
g55
sg9
I00
sg10
I0
sbsS'spinoff.nasa.gov'
p59
g2
(g3
g4
Ntp60
Rp61
(dp62
g8
g59
sg9
I00
sg10
I0
sbsS'www.amazon.com'
p63
g2
(g3
g4
Ntp64
Rp65
(dp66
g8
g63
sg9
Nsg10
I0
sbsVcmd.exe
p67
g2
(g3
g4
Ntp68
Rp69
(dp70
g8
g67
sg9
I01
sg10
I0
sbsVpandion.exe
p71
g2
(g3
g4
Ntp72
Rp73
(dp74
g8
g71
sg9
I01
sg10
I0
sbsS'thatgroupocoolkids.azurewebsites.net'
p75
g2
(g3
g4
Ntp76
Rp77
(dp78
g8
g75
sg9
I00
sg10
I0
sbsS'github.com'
p79
g2
(g3
g4
Ntp80
Rp81
(dp82
g8
g79
sg9
I01
sg10
I0
sbsS'www.muirskate.com'
p83
g2
(g3
g4
Ntp84
Rp85
(dp86
g8
g83
sg9
Nsg10
I0
sbsVdrdanyo.exe
p87
g2
(g3
g4
Ntp88
Rp89
(dp90
g8
g87
sg9
Nsg10
I0
sbsS'www.google.co.nz'
p91
g2
(g3
g4
Ntp92
Rp93
(dp94
g8
g91
sg9
I01
sg10
I0
sbsS'news.ycombinator.com'
p95
g2
(g3
g4
Ntp96
Rp97
(dp98
g8
g95
sg9
I00
sg10
I0
sbsS'reference.sitepoint.com'
p99
g2
(g3
g4
Ntp100
Rp101
(dp102
g8
g99
sg9
I01
sg10
I0
sbsS'www.facebook.com'
p103
g2
(g3
g4
Ntp104
Rp105
(dp106
g8
g103
sg9
I00
sg10
I0
sbsVpython.exe
p107
g2
(g3
g4
Ntp108
Rp109
(dp110
g8
g107
sg9
I01
sg10
I0
sbsVsublime_text.exe
p111
g2
(g3
g4
Ntp112
Rp113
(dp114
g8
g111
sg9
I01
sg10
I0
sbsVwindbg.exe
p115
g2
(g3
g4
Ntp116
Rp117
(dp118
g8
g115
sg9
I01
sg10
I0
sbs.